target datalayout = "e-m:e-p270:32:32-p271:32:32-p272:64:64-i64:64-i128:128-f80:128-n8:16:32:64-S128"
target triple = "x86_64-pc-linux-gnu"

%"class.std::__cxx11::basic_string" = type { %"struct.std::__cxx11::basic_string<char>::_Alloc_hider", i64, %union.anon }
%"struct.std::__cxx11::basic_string<char>::_Alloc_hider" = type { ptr }
%union.anon = type { i64, [8 x i8] }
%"class.std::allocator" = type { i8 }
%"class.std::unique_ptr" = type { %"struct.std::__uniq_ptr_data" }
%"struct.std::__uniq_ptr_data" = type { %"class.std::__uniq_ptr_impl" }
%"class.std::__uniq_ptr_impl" = type { %"class.std::tuple" }
%"class.std::tuple" = type { %"struct.std::_Tuple_impl" }
%"struct.std::_Tuple_impl" = type { %"struct.std::_Head_base.16" }
%"struct.std::_Head_base.16" = type { ptr }
%"struct.nix::Setter" = type { ptr, ptr }
%struct.git_error = type { ptr, i32 }

@_ZTIN3nix5ErrorE = linkonce_odr constant { ptr, ptr, ptr } { ptr getelementptr inbounds (ptr, ptr @_ZTVN10__cxxabiv120__si_class_type_infoE, i64 2), ptr @_ZTSN3nix5ErrorE, ptr @_ZTIN3nix9BaseErrorE }, comdat, align 8
@.str.4 = private unnamed_addr constant [28 x i8] c"getting Git object '%s': %s\00", align 1
@_ZTVN3nix5ErrorE = linkonce_odr unnamed_addr constant { [5 x ptr] } { [5 x ptr] [ptr null, ptr @_ZTIN3nix5ErrorE, ptr @_ZN3nix5ErrorD2Ev, ptr @_ZN3nix5ErrorD0Ev, ptr @_ZNK3nix9BaseError4whatEv] }, comdat, align 8

; Function Attrs: mustprogress nounwind uwtable
define linkonce_odr void @_ZNSt10_Head_baseILm1EN3nix7DeleterIXadL_Z15git_object_freeEEEELb1EEC2Ev(ptr noundef nonnull align 1 dereferenceable(1) %0) unnamed_addr #4 comdat align 2 {
  %2 = alloca ptr, align 8
  store ptr %0, ptr %2, align 8
  ret void
}

; Function Attrs: mustprogress nounwind uwtable
define linkonce_odr void @_ZNSt10_Head_baseILm0EP10git_objectLb0EEC2Ev(ptr noundef nonnull align 8 dereferenceable(8) %0) unnamed_addr #4 comdat align 2 {
  %2 = alloca ptr, align 8
  store ptr %0, ptr %2, align 8
  %3 = load ptr, ptr %2, align 8
  %4 = getelementptr inbounds %"struct.std::_Head_base.16", ptr %3, i32 0, i32 0
  store ptr null, ptr %4, align 8
  ret void
}

; Function Attrs: mustprogress uwtable
define linkonce_odr void @_ZNSt11_Tuple_implILm1EJN3nix7DeleterIXadL_Z15git_object_freeEEEEEEC2Ev(ptr noundef nonnull align 1 dereferenceable(1) %0) unnamed_addr #5 comdat align 2 {
  %2 = alloca ptr, align 8
  store ptr %0, ptr %2, align 8
  %3 = load ptr, ptr %2, align 8
  call void @_ZNSt10_Head_baseILm1EN3nix7DeleterIXadL_Z15git_object_freeEEEELb1EEC2Ev(ptr noundef nonnull align 1 dereferenceable(1) %3)
  ret void
}

; Function Attrs: mustprogress uwtable
define linkonce_odr void @_ZNSt11_Tuple_implILm0EJP10git_objectN3nix7DeleterIXadL_Z15git_object_freeEEEEEEC2Ev(ptr noundef nonnull align 8 dereferenceable(8) %0) unnamed_addr #5 comdat align 2 {
  %2 = alloca ptr, align 8
  store ptr %0, ptr %2, align 8
  %3 = load ptr, ptr %2, align 8
  call void @_ZNSt11_Tuple_implILm1EJN3nix7DeleterIXadL_Z15git_object_freeEEEEEEC2Ev(ptr noundef nonnull align 1 dereferenceable(1) %3)
  call void @_ZNSt10_Head_baseILm0EP10git_objectLb0EEC2Ev(ptr noundef nonnull align 8 dereferenceable(8) %3)
  ret void
}

; Function Attrs: mustprogress nounwind uwtable
define linkonce_odr void @_ZNSt5tupleIJP10git_objectN3nix7DeleterIXadL_Z15git_object_freeEEEEEEC2ILb1ETnNSt9enable_ifIXclsr17_TupleConstraintsIXT_ES1_S4_EE37__is_implicitly_default_constructibleEEbE4typeELb1EEEv(ptr noundef nonnull align 8 dereferenceable(8) %0) unnamed_addr #4 comdat align 2 personality ptr @__gxx_personality_v0 {
  %2 = alloca ptr, align 8
  store ptr %0, ptr %2, align 8
  %3 = load ptr, ptr %2, align 8
  invoke void @_ZNSt11_Tuple_implILm0EJP10git_objectN3nix7DeleterIXadL_Z15git_object_freeEEEEEEC2Ev(ptr noundef nonnull align 8 dereferenceable(8) %3)
          to label %4 unwind label %5

4:                                                ; preds = %1
  ret void

5:                                                ; preds = %1
  %6 = landingpad { ptr, i32 }
          catch ptr null
  %7 = extractvalue { ptr, i32 } %6, 0
  call void @__clang_call_terminate(ptr %7) #21
  unreachable
}

; Function Attrs: mustprogress nounwind uwtable
define linkonce_odr void @_ZNSt15__uniq_ptr_implI10git_objectN3nix7DeleterIXadL_Z15git_object_freeEEEEEC2Ev(ptr noundef nonnull align 8 dereferenceable(8) %0) unnamed_addr #4 comdat align 2 {
  %2 = alloca ptr, align 8
  store ptr %0, ptr %2, align 8
  %3 = load ptr, ptr %2, align 8
  %4 = getelementptr inbounds %"class.std::__uniq_ptr_impl", ptr %3, i32 0, i32 0
  call void @_ZNSt5tupleIJP10git_objectN3nix7DeleterIXadL_Z15git_object_freeEEEEEEC2ILb1ETnNSt9enable_ifIXclsr17_TupleConstraintsIXT_ES1_S4_EE37__is_implicitly_default_constructibleEEbE4typeELb1EEEv(ptr noundef nonnull align 8 dereferenceable(8) %4) #3
  ret void
}

; Function Attrs: mustprogress nounwind uwtable
define linkonce_odr void @_ZNSt15__uniq_ptr_dataI10git_objectN3nix7DeleterIXadL_Z15git_object_freeEEEELb1ELb1EEC2Ev(ptr noundef nonnull align 8 dereferenceable(8) %0) unnamed_addr #4 comdat align 2 {
  %2 = alloca ptr, align 8
  store ptr %0, ptr %2, align 8
  %3 = load ptr, ptr %2, align 8
  call void @_ZNSt15__uniq_ptr_implI10git_objectN3nix7DeleterIXadL_Z15git_object_freeEEEEEC2Ev(ptr noundef nonnull align 8 dereferenceable(8) %3) #3
  ret void
}

; Function Attrs: mustprogress uwtable
define linkonce_odr void @_ZN3nix5ErrorCI2NS_9BaseErrorEIJ7git_oidPcEEERKNSt7__cxx1112basic_stringIcSt11char_traitsIcESaIcEEEDpRKT_(ptr noundef nonnull align 8 dereferenceable(376) %0, ptr noundef nonnull align 8 dereferenceable(32) %1, ptr noundef nonnull align 1 dereferenceable(20) %2, ptr noundef nonnull align 8 dereferenceable(8) %3) unnamed_addr #5 comdat align 2 {
  %5 = alloca ptr, align 8
  %6 = alloca ptr, align 8
  %7 = alloca ptr, align 8
  %8 = alloca ptr, align 8
  store ptr %0, ptr %5, align 8
  store ptr %1, ptr %6, align 8
  store ptr %2, ptr %7, align 8
  store ptr %3, ptr %8, align 8
  %9 = load ptr, ptr %5, align 8
  %10 = load ptr, ptr %6, align 8
  %11 = load ptr, ptr %7, align 8
  %12 = load ptr, ptr %8, align 8
  call void @_ZN3nix9BaseErrorC2IJ7git_oidPcEEERKNSt7__cxx1112basic_stringIcSt11char_traitsIcESaIcEEEDpRKT_(ptr noundef nonnull align 8 dereferenceable(376) %9, ptr noundef nonnull align 8 dereferenceable(32) %10, ptr noundef nonnull align 1 dereferenceable(20) %11, ptr noundef nonnull align 8 dereferenceable(8) %12)
  store ptr getelementptr inbounds ({ [5 x ptr] }, ptr @_ZTVN3nix5ErrorE, i32 0, i32 0, i32 2), ptr %9, align 8
  ret void
}

; Function Attrs: mustprogress nounwind uwtable
define linkonce_odr noundef ptr @_ZN3nix6SetterISt10unique_ptrI10git_objectNS_7DeleterIXadL_Z15git_object_freeEEEEEEcvPPS2_Ev(ptr noundef nonnull align 8 dereferenceable(16) %0) #4 comdat align 2 {
  %2 = alloca ptr, align 8
  store ptr %0, ptr %2, align 8
  %3 = load ptr, ptr %2, align 8
  %4 = getelementptr inbounds %"struct.nix::Setter", ptr %3, i32 0, i32 1
  ret ptr %4
}

; Function Attrs: mustprogress nounwind uwtable
define linkonce_odr void @_ZN3nix6SetterISt10unique_ptrI10git_objectNS_7DeleterIXadL_Z15git_object_freeEEEEEEC2ERS5_(ptr noundef nonnull align 8 dereferenceable(16) %0, ptr noundef nonnull align 8 dereferenceable(8) %1) unnamed_addr #4 comdat align 2 {
  %3 = alloca ptr, align 8
  %4 = alloca ptr, align 8
  store ptr %0, ptr %3, align 8
  store ptr %1, ptr %4, align 8
  %5 = load ptr, ptr %3, align 8
  %6 = getelementptr inbounds %"struct.nix::Setter", ptr %5, i32 0, i32 0
  %7 = load ptr, ptr %4, align 8
  store ptr %7, ptr %6, align 8
  %8 = getelementptr inbounds %"struct.nix::Setter", ptr %5, i32 0, i32 1
  store ptr null, ptr %8, align 8
  ret void
}

; Function Attrs: mustprogress nounwind uwtable
define linkonce_odr void @_ZNSt10unique_ptrI10git_objectN3nix7DeleterIXadL_Z15git_object_freeEEEEEC2IS3_vEEv(ptr noundef nonnull align 8 dereferenceable(8) %0) unnamed_addr #4 comdat align 2 {
  %2 = alloca ptr, align 8
  store ptr %0, ptr %2, align 8
  %3 = load ptr, ptr %2, align 8
  %4 = getelementptr inbounds %"class.std::unique_ptr", ptr %3, i32 0, i32 0
  call void @llvm.memset.p0.i64(ptr align 8 %4, i8 0, i64 8, i1 false)
  call void @_ZNSt15__uniq_ptr_dataI10git_objectN3nix7DeleterIXadL_Z15git_object_freeEEEELb1ELb1EEC2Ev(ptr noundef nonnull align 8 dereferenceable(8) %4) #3
  ret void
}

; Function Attrs: mustprogress uwtable
define void @_ZN3nix12lookupObjectEP14git_repositoryRK7git_oid(ptr dead_on_unwind noalias writable sret(%"class.std::unique_ptr") align 8 %0, ptr noundef %1, ptr noundef nonnull align 1 dereferenceable(20) %2) #5 personality ptr @__gxx_personality_v0 {
  %4 = alloca ptr, align 8
  %5 = alloca ptr, align 8
  %6 = alloca ptr, align 8
  %7 = alloca i1, align 1
  %8 = alloca %"struct.nix::Setter", align 8
  %9 = alloca ptr, align 8
  %10 = alloca i32, align 4
  %11 = alloca ptr, align 8
  %12 = alloca %"class.std::__cxx11::basic_string", align 8
  %13 = alloca %"class.std::allocator", align 1
  %14 = alloca i1, align 1
  store ptr %0, ptr %4, align 8
  store ptr %1, ptr %5, align 8
  store ptr %2, ptr %6, align 8
  store i1 false, ptr %7, align 1
  call void @_ZNSt10unique_ptrI10git_objectN3nix7DeleterIXadL_Z15git_object_freeEEEEEC2IS3_vEEv(ptr noundef nonnull align 8 dereferenceable(8) %0) #3
  invoke void @_ZN3nix6SetterISt10unique_ptrI10git_objectNS_7DeleterIXadL_Z15git_object_freeEEEEEEC2ERS5_(ptr noundef nonnull align 8 dereferenceable(16) %8, ptr noundef nonnull align 8 dereferenceable(8) %0)
          to label %15 unwind label %32

15:                                               ; preds = %3
  %16 = invoke noundef ptr @_ZN3nix6SetterISt10unique_ptrI10git_objectNS_7DeleterIXadL_Z15git_object_freeEEEEEEcvPPS2_Ev(ptr noundef nonnull align 8 dereferenceable(16) %8)
          to label %17 unwind label %36

17:                                               ; preds = %15
  %18 = load ptr, ptr %5, align 8
  %19 = load ptr, ptr %6, align 8
  %20 = invoke i32 @git_object_lookup(ptr noundef %16, ptr noundef %18, ptr noundef %19, i32 noundef -2)
          to label %21 unwind label %36

21:                                               ; preds = %17
  %22 = icmp ne i32 %20, 0
  call void @_ZN3nix6SetterISt10unique_ptrI10git_objectNS_7DeleterIXadL_Z15git_object_freeEEEEEED2Ev(ptr noundef nonnull align 8 dereferenceable(16) %8) #3
  br i1 %22, label %23, label %52

23:                                               ; preds = %21
  %24 = invoke ptr @git_error_last()
          to label %25 unwind label %32

25:                                               ; preds = %23
  store ptr %24, ptr %11, align 8
  store i1 true, ptr %14, align 1
  %26 = call ptr @__cxa_allocate_exception(i64 376) #3
  call void @_ZNSaIcEC1Ev(ptr noundef nonnull align 1 dereferenceable(1) %13) #3
  invoke void @_ZNSt7__cxx1112basic_stringIcSt11char_traitsIcESaIcEEC2IS3_EEPKcRKS3_(ptr noundef nonnull align 8 dereferenceable(32) %12, ptr noundef @.str.4, ptr noundef nonnull align 1 dereferenceable(1) %13)
          to label %27 unwind label %40

27:                                               ; preds = %25
  %28 = load ptr, ptr %6, align 8
  %29 = load ptr, ptr %11, align 8
  %30 = getelementptr inbounds %struct.git_error, ptr %29, i32 0, i32 0
  invoke void @_ZN3nix5ErrorCI2NS_9BaseErrorEIJ7git_oidPcEEERKNSt7__cxx1112basic_stringIcSt11char_traitsIcESaIcEEEDpRKT_(ptr noundef nonnull align 8 dereferenceable(376) %26, ptr noundef nonnull align 8 dereferenceable(32) %12, ptr noundef nonnull align 1 dereferenceable(20) %28, ptr noundef nonnull align 8 dereferenceable(8) %30)
          to label %31 unwind label %44

31:                                               ; preds = %27
  store i1 false, ptr %14, align 1
  invoke void @__cxa_throw(ptr %26, ptr @_ZTIN3nix5ErrorE, ptr @_ZN3nix5ErrorD2Ev) #20
          to label %62 unwind label %44

32:                                               ; preds = %23, %3
  %33 = landingpad { ptr, i32 }
          cleanup
  %34 = extractvalue { ptr, i32 } %33, 0
  store ptr %34, ptr %9, align 8
  %35 = extractvalue { ptr, i32 } %33, 1
  store i32 %35, ptr %10, align 4
  br label %56

36:                                               ; preds = %17, %15
  %37 = landingpad { ptr, i32 }
          cleanup
  %38 = extractvalue { ptr, i32 } %37, 0
  store ptr %38, ptr %9, align 8
  %39 = extractvalue { ptr, i32 } %37, 1
  store i32 %39, ptr %10, align 4
  call void @_ZN3nix6SetterISt10unique_ptrI10git_objectNS_7DeleterIXadL_Z15git_object_freeEEEEEED2Ev(ptr noundef nonnull align 8 dereferenceable(16) %8) #3
  br label %56

40:                                               ; preds = %25
  %41 = landingpad { ptr, i32 }
          cleanup
  %42 = extractvalue { ptr, i32 } %41, 0
  store ptr %42, ptr %9, align 8
  %43 = extractvalue { ptr, i32 } %41, 1
  store i32 %43, ptr %10, align 4
  br label %48

44:                                               ; preds = %31, %27
  %45 = landingpad { ptr, i32 }
          cleanup
  %46 = extractvalue { ptr, i32 } %45, 0
  store ptr %46, ptr %9, align 8
  %47 = extractvalue { ptr, i32 } %45, 1
  store i32 %47, ptr %10, align 4
  call void @_ZNSt7__cxx1112basic_stringIcSt11char_traitsIcESaIcEED2Ev(ptr noundef nonnull align 8 dereferenceable(32) %12) #3
  br label %48

48:                                               ; preds = %44, %40
  call void @_ZNSaIcED1Ev(ptr noundef nonnull align 1 dereferenceable(1) %13) #3
  %49 = load i1, ptr %14, align 1
  br i1 %49, label %50, label %51

50:                                               ; preds = %48
  call void @__cxa_free_exception(ptr %26) #3
  br label %51

51:                                               ; preds = %50, %48
  br label %56

52:                                               ; preds = %21
  store i1 true, ptr %7, align 1
  %53 = load i1, ptr %7, align 1
  br i1 %53, label %55, label %54

54:                                               ; preds = %52
  call void @_ZNSt10unique_ptrI10git_objectN3nix7DeleterIXadL_Z15git_object_freeEEEEED2Ev(ptr noundef nonnull align 8 dereferenceable(8) %0) #3
  br label %55

55:                                               ; preds = %54, %52
  ret void

56:                                               ; preds = %51, %36, %32
  call void @_ZNSt10unique_ptrI10git_objectN3nix7DeleterIXadL_Z15git_object_freeEEEEED2Ev(ptr noundef nonnull align 8 dereferenceable(8) %0) #3
  br label %57

57:                                               ; preds = %56
  %58 = load ptr, ptr %9, align 8
  %59 = load i32, ptr %10, align 4
  %60 = insertvalue { ptr, i32 } poison, ptr %58, 0
  %61 = insertvalue { ptr, i32 } %60, i32 %59, 1
  resume { ptr, i32 } %61

62:                                               ; preds = %31
  unreachable
}