; Function Attrs: mustprogress uwtable
define void @_ZN3nix12lookupObjectEP14git_repositoryRK7git_oid(ptr dead_on_unwind noalias writable sret(%"class.std::unique_ptr") align 8 %0, ptr noundef %1, ptr noundef nonnull align 1 dereferenceable(20) %2) local_unnamed_addr #4 personality ptr @__gxx_personality_v0 {
  %4 = alloca %"struct.nix::Setter", align 8
  %5 = alloca %"class.std::__cxx11::basic_string", align 8
  %6 = alloca %"class.std::allocator", align 1
  store ptr null, ptr %0, align 8
  store ptr %0, ptr %4, align 8
  %7 = getelementptr inbounds i8, ptr %4, i64 8
  store ptr null, ptr %7, align 8
  %8 = invoke i32 @git_object_lookup(ptr noundef nonnull %7, ptr noundef %1, ptr noundef nonnull %2, i32 noundef -2)
          to label %9 unwind label %26

9:                                                ; preds = %3
  %.not = icmp eq i32 %8, 0
  %10 = load ptr, ptr %7, align 8
  %.not.i = icmp eq ptr %10, null
  br i1 %.not.i, label %_ZN3nix6SetterISt10unique_ptrI10git_objectNS_7DeleterIXadL_Z15git_object_freeEEEEEED2Ev.exit, label %11

11:                                               ; preds = %9
  %12 = load ptr, ptr %4, align 8
  %13 = load ptr, ptr %12, align 8
  store ptr %10, ptr %12, align 8
  %.not.i.i.i.i.i = icmp eq ptr %13, null
  br i1 %.not.i.i.i.i.i, label %_ZN3nix6SetterISt10unique_ptrI10git_objectNS_7DeleterIXadL_Z15git_object_freeEEEEEED2Ev.exit, label %14

14:                                               ; preds = %11
  invoke void @git_object_free(ptr noundef nonnull %13)
          to label %_ZN3nix6SetterISt10unique_ptrI10git_objectNS_7DeleterIXadL_Z15git_object_freeEEEEEED2Ev.exit unwind label %15

15:                                               ; preds = %14
  %16 = landingpad { ptr, i32 }
          catch ptr null
  %17 = extractvalue { ptr, i32 } %16, 0
  call void @__clang_call_terminate(ptr %17) #29
  unreachable

_ZN3nix6SetterISt10unique_ptrI10git_objectNS_7DeleterIXadL_Z15git_object_freeEEEEEED2Ev.exit: ; preds = %9, %11, %14
  br i1 %.not, label %32, label %18

18:                                               ; preds = %_ZN3nix6SetterISt10unique_ptrI10git_objectNS_7DeleterIXadL_Z15git_object_freeEEEEEED2Ev.exit
  %19 = invoke ptr @git_error_last()
          to label %20 unwind label %24

20:                                               ; preds = %18
  %21 = call ptr @__cxa_allocate_exception(i64 376) #25
  call void @_ZNSaIcEC1Ev(ptr noundef nonnull align 1 dereferenceable(1) %6) #25
  invoke void @_ZNSt7__cxx1112basic_stringIcSt11char_traitsIcESaIcEEC2IS3_EEPKcRKS3_(ptr noundef nonnull align 8 dereferenceable(32) %5, ptr noundef nonnull @.str.4, ptr noundef nonnull align 1 dereferenceable(1) %6)
          to label %22 unwind label %.thread

22:                                               ; preds = %20
  invoke void @_ZN3nix9BaseErrorC2IJ7git_oidPcEEERKNSt7__cxx1112basic_stringIcSt11char_traitsIcESaIcEEEDpRKT_(ptr noundef nonnull align 8 dereferenceable(376) %21, ptr noundef nonnull align 8 dereferenceable(32) %5, ptr noundef nonnull align 1 dereferenceable(20) %2, ptr noundef nonnull align 8 dereferenceable(8) %19)
          to label %23 unwind label %29

23:                                               ; preds = %22
  store ptr getelementptr inbounds ({ [5 x ptr] }, ptr @_ZTVN3nix5ErrorE, i64 0, i32 0, i64 2), ptr %21, align 8
  invoke void @__cxa_throw(ptr nonnull %21, ptr nonnull @_ZTIN3nix5ErrorE, ptr nonnull @_ZN3nix5ErrorD2Ev) #27
          to label %34 unwind label %29

24:                                               ; preds = %18
  %25 = landingpad { ptr, i32 }
          cleanup
  br label %33

26:                                               ; preds = %3
  %27 = landingpad { ptr, i32 }
          cleanup
  call void @_ZN3nix6SetterISt10unique_ptrI10git_objectNS_7DeleterIXadL_Z15git_object_freeEEEEEED2Ev(ptr noundef nonnull align 8 dereferenceable(16) %4) #25
  br label %33

.thread:                                          ; preds = %20
  %28 = landingpad { ptr, i32 }
          cleanup
  call void @_ZNSaIcED1Ev(ptr noundef nonnull align 1 dereferenceable(1) %6) #25
  br label %31

29:                                               ; preds = %23, %22
  %.0 = phi i1 [ false, %23 ], [ true, %22 ]
  %30 = landingpad { ptr, i32 }
          cleanup
  call void @_ZNSt7__cxx1112basic_stringIcSt11char_traitsIcESaIcEED2Ev(ptr noundef nonnull align 8 dereferenceable(32) %5) #25
  call void @_ZNSaIcED1Ev(ptr noundef nonnull align 1 dereferenceable(1) %6) #25
  br i1 %.0, label %31, label %33

31:                                               ; preds = %.thread, %29
  %.pn15 = phi { ptr, i32 } [ %28, %.thread ], [ %30, %29 ]
  call void @__cxa_free_exception(ptr %21) #25
  br label %33

32:                                               ; preds = %_ZN3nix6SetterISt10unique_ptrI10git_objectNS_7DeleterIXadL_Z15git_object_freeEEEEEED2Ev.exit
  ret void

33:                                               ; preds = %29, %31, %26, %24
  %.pn.pn = phi { ptr, i32 } [ %.pn15, %31 ], [ %30, %29 ], [ %25, %24 ], [ %27, %26 ]
  call void @_ZNSt10unique_ptrI10git_objectN3nix7DeleterIXadL_Z15git_object_freeEEEEED2Ev(ptr noundef nonnull align 8 dereferenceable(8) %0) #25
  resume { ptr, i32 } %.pn.pn

34:                                               ; preds = %23
  unreachable
}